target datalayout = "e-m:e-p270:32:32-p271:32:32-p272:64:64-i64:64-i128:128-f80:128-n8:16:32:64-S128"
target triple = "x86_64-pc-linux-gnu"

%struct.zmq_msg_t = type { [64 x i8] }

@_ZL15roundtrip_count = internal global i32 0, align 4
@.str.2 = private unnamed_addr constant [25 x i8] c"error in zmq_socket: %s\0A\00", align 1
@.str.3 = private unnamed_addr constant [18 x i8] c"inproc://lat_test\00", align 1
@.str.9 = private unnamed_addr constant [26 x i8] c"error in zmq_sendmsg: %s\0A\00", align 1
@.str.10 = private unnamed_addr constant [26 x i8] c"error in zmq_recvmsg: %s\0A\00", align 1
@.str.12 = private unnamed_addr constant [28 x i8] c"error in zmq_msg_close: %s\0A\00", align 1
@.str.15 = private unnamed_addr constant [24 x i8] c"error in zmq_close: %s\0A\00", align 1
@.str.17 = private unnamed_addr constant [26 x i8] c"error in zmq_connect: %s\0A\00", align 1
@.str.18 = private unnamed_addr constant [27 x i8] c"error in zmq_msg_init: %s\0A\00", align 1

; Function Attrs: mustprogress uwtable
define internal noundef ptr @_ZL6workerPv(ptr noundef %0) #6 {
  %2 = alloca ptr, align 8
  %3 = alloca ptr, align 8
  %4 = alloca i32, align 4
  %5 = alloca i32, align 4
  %6 = alloca %struct.zmq_msg_t, align 8
  store ptr %0, ptr %2, align 8, !tbaa !16
  call void @llvm.lifetime.start.p0(i64 8, ptr %3) #9
  call void @llvm.lifetime.start.p0(i64 4, ptr %4) #9
  call void @llvm.lifetime.start.p0(i64 4, ptr %5) #9
  call void @llvm.lifetime.start.p0(i64 64, ptr %6) #9
  %7 = load ptr, ptr %2, align 8, !tbaa !16
  %8 = call ptr @zmq_socket(ptr noundef %7, i32 noundef 4)
  store ptr %8, ptr %3, align 8, !tbaa !16
  %9 = load ptr, ptr %3, align 8, !tbaa !16
  %10 = icmp ne ptr %9, null
  br i1 %10, label %16, label %11

11:                                               ; preds = %1
  %12 = call ptr @__errno_location() #11
  %13 = load i32, ptr %12, align 4, !tbaa !4
  %14 = call ptr @zmq_strerror(i32 noundef %13)
  %15 = call i32 (ptr, ...) @printf(ptr noundef @.str.2, ptr noundef %14)
  call void @exit(i32 noundef 1) #12
  unreachable

16:                                               ; preds = %1
  %17 = load ptr, ptr %3, align 8, !tbaa !16
  %18 = call i32 @zmq_connect(ptr noundef %17, ptr noundef @.str.3)
  store i32 %18, ptr %4, align 4, !tbaa !4
  %19 = load i32, ptr %4, align 4, !tbaa !4
  %20 = icmp ne i32 %19, 0
  br i1 %20, label %21, label %26

21:                                               ; preds = %16
  %22 = call ptr @__errno_location() #11
  %23 = load i32, ptr %22, align 4, !tbaa !4
  %24 = call ptr @zmq_strerror(i32 noundef %23)
  %25 = call i32 (ptr, ...) @printf(ptr noundef @.str.17, ptr noundef %24)
  call void @exit(i32 noundef 1) #12
  unreachable

26:                                               ; preds = %16
  %27 = call i32 @zmq_msg_init(ptr noundef %6)
  store i32 %27, ptr %4, align 4, !tbaa !4
  %28 = load i32, ptr %4, align 4, !tbaa !4
  %29 = icmp ne i32 %28, 0
  br i1 %29, label %30, label %35

30:                                               ; preds = %26
  %31 = call ptr @__errno_location() #11
  %32 = load i32, ptr %31, align 4, !tbaa !4
  %33 = call ptr @zmq_strerror(i32 noundef %32)
  %34 = call i32 (ptr, ...) @printf(ptr noundef @.str.18, ptr noundef %33)
  call void @exit(i32 noundef 1) #12
  unreachable

35:                                               ; preds = %26
  store i32 0, ptr %5, align 4, !tbaa !4
  br label %36

36:                                               ; preds = %61, %35
  %37 = load i32, ptr %5, align 4, !tbaa !4
  %38 = load i32, ptr @_ZL15roundtrip_count, align 4, !tbaa !4
  %39 = icmp ne i32 %37, %38
  br i1 %39, label %40, label %64

40:                                               ; preds = %36
  %41 = load ptr, ptr %3, align 8, !tbaa !16
  %42 = call i32 @zmq_recvmsg(ptr noundef %41, ptr noundef %6, i32 noundef 0)
  store i32 %42, ptr %4, align 4, !tbaa !4
  %43 = load i32, ptr %4, align 4, !tbaa !4
  %44 = icmp slt i32 %43, 0
  br i1 %44, label %45, label %50

45:                                               ; preds = %40
  %46 = call ptr @__errno_location() #11
  %47 = load i32, ptr %46, align 4, !tbaa !4
  %48 = call ptr @zmq_strerror(i32 noundef %47)
  %49 = call i32 (ptr, ...) @printf(ptr noundef @.str.10, ptr noundef %48)
  call void @exit(i32 noundef 1) #12
  unreachable

50:                                               ; preds = %40
  %51 = load ptr, ptr %3, align 8, !tbaa !16
  %52 = call i32 @zmq_sendmsg(ptr noundef %51, ptr noundef %6, i32 noundef 0)
  store i32 %52, ptr %4, align 4, !tbaa !4
  %53 = load i32, ptr %4, align 4, !tbaa !4
  %54 = icmp slt i32 %53, 0
  br i1 %54, label %55, label %60

55:                                               ; preds = %50
  %56 = call ptr @__errno_location() #11
  %57 = load i32, ptr %56, align 4, !tbaa !4
  %58 = call ptr @zmq_strerror(i32 noundef %57)
  %59 = call i32 (ptr, ...) @printf(ptr noundef @.str.9, ptr noundef %58)
  call void @exit(i32 noundef 1) #12
  unreachable

60:                                               ; preds = %50
  br label %61

61:                                               ; preds = %60
  %62 = load i32, ptr %5, align 4, !tbaa !4
  %63 = add nsw i32 %62, 1
  store i32 %63, ptr %5, align 4, !tbaa !4
  br label %36, !llvm.loop !21

64:                                               ; preds = %36
  %65 = call i32 @zmq_msg_close(ptr noundef %6)
  store i32 %65, ptr %4, align 4, !tbaa !4
  %66 = load i32, ptr %4, align 4, !tbaa !4
  %67 = icmp ne i32 %66, 0
  br i1 %67, label %68, label %73

68:                                               ; preds = %64
  %69 = call ptr @__errno_location() #11
  %70 = load i32, ptr %69, align 4, !tbaa !4
  %71 = call ptr @zmq_strerror(i32 noundef %70)
  %72 = call i32 (ptr, ...) @printf(ptr noundef @.str.12, ptr noundef %71)
  call void @exit(i32 noundef 1) #12
  unreachable

73:                                               ; preds = %64
  %74 = load ptr, ptr %3, align 8, !tbaa !16
  %75 = call i32 @zmq_close(ptr noundef %74)
  store i32 %75, ptr %4, align 4, !tbaa !4
  %76 = load i32, ptr %4, align 4, !tbaa !4
  %77 = icmp ne i32 %76, 0
  br i1 %77, label %78, label %83

78:                                               ; preds = %73
  %79 = call ptr @__errno_location() #11
  %80 = load i32, ptr %79, align 4, !tbaa !4
  %81 = call ptr @zmq_strerror(i32 noundef %80)
  %82 = call i32 (ptr, ...) @printf(ptr noundef @.str.15, ptr noundef %81)
  call void @exit(i32 noundef 1) #12
  unreachable

83:                                               ; preds = %73
  call void @llvm.lifetime.end.p0(i64 64, ptr %6) #9
  call void @llvm.lifetime.end.p0(i64 4, ptr %5) #9
  call void @llvm.lifetime.end.p0(i64 4, ptr %4) #9
  call void @llvm.lifetime.end.p0(i64 8, ptr %3) #9
  ret ptr null
}