; Function Attrs: mustprogress uwtable
define internal noalias noundef ptr @_ZL6workerPv(ptr noundef %0) #6 {
  %2 = alloca %struct.zmq_msg_t, align 8
  call void @llvm.lifetime.start.p0(i64 64, ptr nonnull %2) #11
  %3 = tail call ptr @zmq_socket(ptr noundef %0, i32 noundef 4)
  %.not = icmp eq ptr %3, null
  br i1 %.not, label %4, label %9

4:                                                ; preds = %1
  %5 = tail call ptr @__errno_location() #12
  %6 = load i32, ptr %5, align 4, !tbaa !9
  %7 = tail call ptr @zmq_strerror(i32 noundef %6)
  %8 = tail call i32 (ptr, ...) @printf(ptr noundef nonnull dereferenceable(1) @.str.2, ptr noundef %7)
  tail call void @exit(i32 noundef 1) #13
  unreachable

9:                                                ; preds = %1
  %10 = tail call i32 @zmq_connect(ptr noundef nonnull %3, ptr noundef nonnull @.str.3)
  %.not14 = icmp eq i32 %10, 0
  br i1 %.not14, label %16, label %11

11:                                               ; preds = %9
  %12 = tail call ptr @__errno_location() #12
  %13 = load i32, ptr %12, align 4, !tbaa !9
  %14 = tail call ptr @zmq_strerror(i32 noundef %13)
  %15 = tail call i32 (ptr, ...) @printf(ptr noundef nonnull dereferenceable(1) @.str.17, ptr noundef %14)
  tail call void @exit(i32 noundef 1) #13
  unreachable

16:                                               ; preds = %9
  %17 = call i32 @zmq_msg_init(ptr noundef nonnull %2)
  %.not15 = icmp eq i32 %17, 0
  br i1 %.not15, label %.preheader, label %19

.preheader:                                       ; preds = %16
  %18 = load i32, ptr @_ZL15roundtrip_count, align 4, !tbaa !9
  %.not1619 = icmp eq i32 %18, 0
  br i1 %.not1619, label %._crit_edge, label %.lr.ph

19:                                               ; preds = %16
  %20 = tail call ptr @__errno_location() #12
  %21 = load i32, ptr %20, align 4, !tbaa !9
  %22 = call ptr @zmq_strerror(i32 noundef %21)
  %23 = call i32 (ptr, ...) @printf(ptr noundef nonnull dereferenceable(1) @.str.18, ptr noundef %22)
  call void @exit(i32 noundef 1) #13
  unreachable

24:                                               ; preds = %34
  %25 = add nuw nsw i32 %.020, 1
  %26 = load i32, ptr @_ZL15roundtrip_count, align 4, !tbaa !9
  %.not16 = icmp eq i32 %25, %26
  br i1 %.not16, label %._crit_edge, label %.lr.ph, !llvm.loop !15

.lr.ph:                                           ; preds = %.preheader, %24
  %.020 = phi i32 [ %25, %24 ], [ 0, %.preheader ]
  %27 = call i32 @zmq_recvmsg(ptr noundef nonnull %3, ptr noundef nonnull %2, i32 noundef 0)
  %28 = icmp slt i32 %27, 0
  br i1 %28, label %29, label %34

29:                                               ; preds = %.lr.ph
  %30 = tail call ptr @__errno_location() #12
  %31 = load i32, ptr %30, align 4, !tbaa !9
  %32 = call ptr @zmq_strerror(i32 noundef %31)
  %33 = call i32 (ptr, ...) @printf(ptr noundef nonnull dereferenceable(1) @.str.10, ptr noundef %32)
  call void @exit(i32 noundef 1) #13
  unreachable

34:                                               ; preds = %.lr.ph
  %35 = call i32 @zmq_sendmsg(ptr noundef nonnull %3, ptr noundef nonnull %2, i32 noundef 0)
  %36 = icmp slt i32 %35, 0
  br i1 %36, label %37, label %24

37:                                               ; preds = %34
  %38 = tail call ptr @__errno_location() #12
  %39 = load i32, ptr %38, align 4, !tbaa !9
  %40 = call ptr @zmq_strerror(i32 noundef %39)
  %41 = call i32 (ptr, ...) @printf(ptr noundef nonnull dereferenceable(1) @.str.9, ptr noundef %40)
  call void @exit(i32 noundef 1) #13
  unreachable

._crit_edge:                                      ; preds = %24, %.preheader
  %42 = call i32 @zmq_msg_close(ptr noundef nonnull %2)
  %.not17 = icmp eq i32 %42, 0
  br i1 %.not17, label %48, label %43

43:                                               ; preds = %._crit_edge
  %44 = tail call ptr @__errno_location() #12
  %45 = load i32, ptr %44, align 4, !tbaa !9
  %46 = call ptr @zmq_strerror(i32 noundef %45)
  %47 = call i32 (ptr, ...) @printf(ptr noundef nonnull dereferenceable(1) @.str.12, ptr noundef %46)
  call void @exit(i32 noundef 1) #13
  unreachable

48:                                               ; preds = %._crit_edge
  %49 = call i32 @zmq_close(ptr noundef nonnull %3)
  %.not18 = icmp eq i32 %49, 0
  br i1 %.not18, label %55, label %50

50:                                               ; preds = %48
  %51 = tail call ptr @__errno_location() #12
  %52 = load i32, ptr %51, align 4, !tbaa !9
  %53 = call ptr @zmq_strerror(i32 noundef %52)
  %54 = call i32 (ptr, ...) @printf(ptr noundef nonnull dereferenceable(1) @.str.15, ptr noundef %53)
  call void @exit(i32 noundef 1) #13
  unreachable

55:                                               ; preds = %48
  call void @llvm.lifetime.end.p0(i64 64, ptr nonnull %2) #11
  ret ptr null
}